target datalayout = "e-m:e-p270:32:32-p271:32:32-p272:64:64-i64:64-i128:128-f80:128-n8:16:32:64-S128"
target triple = "x86_64-pc-linux-gnu"

%union.pthread_mutex_t = type { %struct.__pthread_mutex_s }
%struct.__pthread_mutex_s = type { i32, i32, i32, i32, i32, i16, i16, %struct.__pthread_internal_list }
%struct.__pthread_internal_list = type { ptr, ptr }
%struct.wolfSSL_RefWithMutex = type { %union.pthread_mutex_t, i32 }
%struct.WOLFSSL_CTX = type <{ ptr, %struct.wolfSSL_RefWithMutex, i32, [4 x i8], %struct.WOLFSSL_BUFFER_INFO, %struct.WOLFSSL_BUFFER_INFO, ptr, ptr, i32, [4 x i8], ptr, i8, i8, [2 x i8], i32, i32, [4 x i8], ptr, ptr, ptr, i8, i16, i8, i8, i8, i16, i16, i16, i16, [2 x i8], i64, ptr, ptr, ptr, ptr, i32, i32, i16, [2 x i8], i32, [10 x i16], i8, [3 x i8], ptr, ptr, i32, [4 x i8], ptr, i8, [7 x i8] }>
%struct.WOLFSSL_BUFFER_INFO = type { ptr, i32 }
%struct.ProtocolVersion = type { i8, i8 }
%struct.WOLFSSL_METHOD = type { %struct.ProtocolVersion, i8, i8 }

; Function Attrs: nounwind uwtable
define i32 @wolfSSL_CTX_mutual_auth(ptr noundef %0, i32 noundef %1) #0 {
  %3 = alloca i32, align 4
  %4 = alloca ptr, align 8
  %5 = alloca i32, align 4
  store ptr %0, ptr %4, align 8, !tbaa !24
  store i32 %1, ptr %5, align 4, !tbaa !7
  %6 = load ptr, ptr %4, align 8, !tbaa !24
  %7 = icmp eq ptr %6, null
  br i1 %7, label %8, label %9

8:                                                ; preds = %2
  store i32 -173, ptr %3, align 4
  br label %28

9:                                                ; preds = %2
  %10 = load ptr, ptr %4, align 8, !tbaa !24
  %11 = getelementptr inbounds nuw %struct.WOLFSSL_CTX, ptr %10, i32 0, i32 0
  %12 = load ptr, ptr %11, align 8, !tbaa !149
  %13 = getelementptr inbounds nuw %struct.WOLFSSL_METHOD, ptr %12, i32 0, i32 1
  %14 = load i8, ptr %13, align 1, !tbaa !150
  %15 = zext i8 %14 to i32
  %16 = icmp eq i32 %15, 1
  br i1 %16, label %17, label %18

17:                                               ; preds = %9
  store i32 -344, ptr %3, align 4
  br label %28

18:                                               ; preds = %9
  %19 = load i32, ptr %5, align 4, !tbaa !7
  %20 = trunc i32 %19 to i8
  %21 = load ptr, ptr %4, align 8, !tbaa !24
  %22 = getelementptr inbounds nuw %struct.WOLFSSL_CTX, ptr %21, i32 0, i32 24
  %23 = load i8, ptr %22, align 1
  %24 = and i8 %20, 1
  %25 = shl i8 %24, 3
  %26 = and i8 %23, -9
  %27 = or i8 %26, %25
  store i8 %27, ptr %22, align 1
  store i32 0, ptr %3, align 4
  br label %28

28:                                               ; preds = %18, %17, %8
  %29 = load i32, ptr %3, align 4
  ret i32 %29
}