; Function Attrs: mustprogress nofree norecurse nosync nounwind willreturn memory(read, argmem: readwrite, inaccessiblemem: none) uwtable
define range(i32 -344, 1) i32 @wolfSSL_CTX_mutual_auth(ptr noundef captures(address_is_null) %0, i32 noundef %1) local_unnamed_addr #15 {
  %3 = icmp eq ptr %0, null
  br i1 %3, label %17, label %4

4:                                                ; preds = %2
  %5 = load ptr, ptr %0, align 8, !tbaa !127
  %6 = getelementptr inbounds nuw i8, ptr %5, i64 2
  %7 = load i8, ptr %6, align 1, !tbaa !128
  %8 = icmp eq i8 %7, 1
  br i1 %8, label %17, label %9

9:                                                ; preds = %4
  %10 = trunc i32 %1 to i8
  %11 = getelementptr inbounds nuw i8, ptr %0, i64 173
  %12 = load i8, ptr %11, align 1
  %13 = shl i8 %10, 3
  %14 = and i8 %13, 8
  %15 = and i8 %12, -9
  %16 = or disjoint i8 %15, %14
  store i8 %16, ptr %11, align 1
  br label %17

17:                                               ; preds = %4, %2, %9
  %.0 = phi i32 [ 0, %9 ], [ -173, %2 ], [ -344, %4 ]
  ret i32 %.0
}